# SymbolsHelper-Confirmed: 0.3.0 amd64
libqtkeychain.so.0 libqtkeychain0 #MINVER#
 (optional=templinst)_Z10qdbus_castI10QByteArrayET_RK13QDBusArgumentPS1_@Base 0.1.0
 (optional=templinst)_Z10qdbus_castI10QByteArrayET_RK8QVariantPS1_@Base 0.1.0
 (optional=templinst)_Z10qdbus_castI7QStringET_RK13QDBusArgumentPS1_@Base 0.1.0
 (optional=templinst)_Z10qdbus_castI7QStringET_RK8QVariantPS1_@Base 0.1.0
 (optional=templinst)_Z10qdbus_castIiET_RK13QDBusArgumentPS0_@Base 0.1.0
 (optional=templinst)_Z10qdbus_castIiET_RK8QVariantPS0_@Base 0.1.0
 (optional=templinst)_Z11qMetaTypeIdI10QByteArrayEiPT_@Base 0.1.0
 (optional=templinst)_Z11qMetaTypeIdI11QStringListEiPT_@Base 0.1.0
 (optional=templinst)_Z11qMetaTypeIdI13QDBusArgumentEiPT_@Base 0.1.0
 (optional=templinst)_Z11qMetaTypeIdI4QMapI7QString8QVariantEEiPT_@Base 0.1.0
 (optional=templinst)_Z11qMetaTypeIdI7QStringEiPT_@Base 0.1.0
 (optional=templinst)_Z11qMetaTypeIdIbEiPT_@Base 0.1.0
 (optional=templinst)_Z11qMetaTypeIdIiEiPT_@Base 0.1.0
 (optional=templinst)_Z11qMetaTypeIdIxEiPT_@Base 0.1.0
 (optional=templinst)_Z12qobject_castIPN9QKeychain15ReadPasswordJobEET_P7QObject@Base 0.1.0
 (optional=templinst)_Z12qobject_castIPN9QKeychain16WritePasswordJobEET_P7QObject@Base 0.1.0
 (optional=templinst)_Z13qvariant_castI10QByteArrayET_RK8QVariant@Base 0.1.0
 (optional=templinst)_Z13qvariant_castI13QDBusArgumentET_RK8QVariant@Base 0.1.0
 (optional=templinst)_Z13qvariant_castI7QStringET_RK8QVariant@Base 0.1.0
 (optional=templinst)_Z13qvariant_castIiET_RK8QVariant@Base 0.1.0
 (optional=templinst)_Z17qRegisterMetaTypeI13QDBusArgumentEiPKcPT_@Base 0.1.0
 (optional=templinst)_Z17qVariantFromValueI10QByteArrayE8QVariantRKT_@Base 0.1.0
 (optional=templinst)_Z17qVariantFromValueI7QStringE8QVariantRKT_@Base 0.1.0
 (optional=templinst)_Z17qVariantFromValueIbE8QVariantRKT_@Base 0.1.0
 (optional=templinst)_Z17qVariantFromValueIiE8QVariantRKT_@Base 0.1.0
 (optional=templinst)_Z17qVariantFromValueIxE8QVariantRKT_@Base 0.1.0
 _Z20qvariant_cast_helperRK8QVariantNS_4TypeEPv@Base 0.1.0
 (optional=templinst)_Z21qMetaTypeDeleteHelperI13QDBusArgumentEvPT_@Base 0.1.0
 (optional=templinst)_Z24qMetaTypeConstructHelperI13QDBusArgumentEPvPKT_@Base 0.1.0
 (optional=templinst)_Z27qYouForgotTheQ_OBJECT_MacroIPKN9QKeychain15ReadPasswordJobEEiT_S4_@Base 0.1.0
 (optional=templinst)_Z27qYouForgotTheQ_OBJECT_MacroIPKN9QKeychain16WritePasswordJobEEiT_S4_@Base 0.1.0
 (optional=templinst)_Z4qMaxIiERKT_S2_S2_@Base 0.1.0
 (optional=templinst)_Z4qMinIiERKT_S2_S2_@Base 0.1.0
 (optional=templinst)_Z5qCopyIP8QPointerIN9QKeychain3JobEES4_ET0_T_S6_S5_@Base 0.1.0
 _Z7qt_noopv@Base 0.1.0
 (optional=templinst)_Z9qMakePairIN9QKeychain5ErrorE7QStringE5QPairIT_T0_ERKS4_RKS5_@Base 0.3.0
 _ZN10QByteArrayC1ERKS_@Base 0.1.0
 _ZN10QByteArrayC1Ev@Base 0.1.0
 _ZN10QByteArrayC2ERKS_@Base 0.1.0
 _ZN10QByteArrayC2Ev@Base 0.1.0
 _ZN10QByteArrayD1Ev@Base 0.1.0
 _ZN10QByteArrayD2Ev@Base 0.1.0
 _ZN10QDBusErrorD1Ev@Base 0.1.0
 _ZN10QDBusErrorD2Ev@Base 0.1.0
 _ZN11QLatin1CharC1Ec@Base 0.1.0
 _ZN11QLatin1CharC2Ec@Base 0.1.0
 _ZN11QMetaObject12invokeMethodEP7QObjectPKcN2Qt14ConnectionTypeE16QGenericArgumentS6_S6_S6_S6_S6_S6_S6_S6_S6_@Base 0.1.0
 (optional=templinst)_ZN11QMetaTypeIdI13QDBusArgumentE14qt_metatype_idEv@Base 0.1.0
 _ZN12GnomeKeyring11isSupportedEv@Base 0.3.0
 _ZN12GnomeKeyring21GNOME_KEYRING_DEFAULTE@Base 0.3.0
 _ZN12GnomeKeyring21find_network_passwordEPKcS1_PFvNS_6ResultES1_PvES3_PFvS3_E@Base 0.3.0
 _ZN12GnomeKeyring22store_network_passwordEPKcS1_S1_S1_S1_PFvNS_6ResultEPvES3_PFvS3_E@Base 0.3.0
 _ZN12GnomeKeyring23delete_network_passwordEPKcS1_PFvNS_6ResultEPvES3_PFvS3_E@Base 0.3.0
 _ZN12GnomeKeyring8instanceEv@Base 0.3.0
 _ZN12GnomeKeyringC1Ev@Base 0.3.0
 _ZN12GnomeKeyringC2Ev@Base 0.3.0
 _ZN12GnomeKeyringD0Ev@Base 0.3.0
 _ZN12GnomeKeyringD1Ev@Base 0.3.0
 _ZN12GnomeKeyringD2Ev@Base 0.3.0
 (optional=templinst)_ZN12QMetaTypeId2I10QByteArrayE14qt_metatype_idEv@Base 0.1.0
 (optional=templinst)_ZN12QMetaTypeId2I11QStringListE14qt_metatype_idEv@Base 0.1.0
 (optional=templinst)_ZN12QMetaTypeId2I13QDBusArgumentE14qt_metatype_idEv@Base 0.1.0
 (optional=templinst)_ZN12QMetaTypeId2I4QMapI7QString8QVariantEE14qt_metatype_idEv@Base 0.1.0
 (optional=templinst)_ZN12QMetaTypeId2I7QStringE14qt_metatype_idEv@Base 0.1.0
 (optional=templinst)_ZN12QMetaTypeId2IbE14qt_metatype_idEv@Base 0.1.0
 (optional=templinst)_ZN12QMetaTypeId2IiE14qt_metatype_idEv@Base 0.1.0
 (optional=templinst)_ZN12QMetaTypeId2IxE14qt_metatype_idEv@Base 0.1.0
 _ZN13QLatin1StringC1EPKc@Base 0.1.0
 _ZN13QLatin1StringC2EPKc@Base 0.1.0
 (optional=templinst)_ZN14QScopedPointerI9QSettings21QScopedPointerDeleterIS0_EEC1EPS0_@Base 0.3.0
 (optional=templinst)_ZN14QScopedPointerI9QSettings21QScopedPointerDeleterIS0_EEC2EPS0_@Base 0.3.0
 (optional=templinst)_ZN14QScopedPointerI9QSettings21QScopedPointerDeleterIS0_EED1Ev@Base 0.3.0
 (optional=templinst)_ZN14QScopedPointerI9QSettings21QScopedPointerDeleterIS0_EED2Ev@Base 0.3.0
 _ZN15QBasicAtomicInt3refEv@Base 0.1.0
 _ZN15QBasicAtomicInt5derefEv@Base 0.1.0
 _ZN15QBasicAtomicIntaSEi@Base 0.1.0
 _ZN16QGenericArgumentC1EPKcPKv@Base 0.1.0
 _ZN16QGenericArgumentC2EPKcPKv@Base 0.1.0
 (optional=templinst)_ZN16QVectorTypedDataI8QPointerIN9QKeychain3JobEEE4freeEPS4_i@Base 0.1.0
 (optional=templinst)_ZN17QDBusPendingReplyI10QByteArrayvvvvvvvE18calculateMetaTypesEv@Base 0.1.0
 (optional=templinst)_ZN17QDBusPendingReplyI10QByteArrayvvvvvvvE6assignERK16QDBusPendingCall@Base 0.1.0
 (optional=templinst)_ZN17QDBusPendingReplyI10QByteArrayvvvvvvvEC1ERK16QDBusPendingCall@Base 0.1.0
 (optional=templinst)_ZN17QDBusPendingReplyI10QByteArrayvvvvvvvEC2ERK16QDBusPendingCall@Base 0.1.0
 (optional=templinst)_ZN17QDBusPendingReplyI10QByteArrayvvvvvvvED1Ev@Base 0.1.0
 (optional=templinst)_ZN17QDBusPendingReplyI10QByteArrayvvvvvvvED2Ev@Base 0.1.0
 (optional=templinst)_ZN17QDBusPendingReplyI10QByteArrayvvvvvvvEaSERK16QDBusPendingCall@Base 0.1.0
 (optional=templinst)_ZN17QDBusPendingReplyI10QByteArrayvvvvvvvEaSERKS1_@Base 0.1.0
 (optional=templinst)_ZN17QDBusPendingReplyI11QStringListvvvvvvvE18calculateMetaTypesEv@Base 0.1.0
 (optional=templinst)_ZN17QDBusPendingReplyI11QStringListvvvvvvvE6assignERK16QDBusPendingCall@Base 0.1.0
 (optional=templinst)_ZN17QDBusPendingReplyI11QStringListvvvvvvvEC1ERK16QDBusPendingCall@Base 0.1.0
 (optional=templinst)_ZN17QDBusPendingReplyI11QStringListvvvvvvvEC2ERK16QDBusPendingCall@Base 0.1.0
 (optional=templinst)_ZN17QDBusPendingReplyI11QStringListvvvvvvvED1Ev@Base 0.1.0
 (optional=templinst)_ZN17QDBusPendingReplyI11QStringListvvvvvvvED2Ev@Base 0.1.0
 (optional=templinst)_ZN17QDBusPendingReplyI11QStringListvvvvvvvEaSERK16QDBusPendingCall@Base 0.1.0
 (optional=templinst)_ZN17QDBusPendingReplyI11QStringListvvvvvvvEaSERKS1_@Base 0.1.0
 (optional=templinst)_ZN17QDBusPendingReplyI4QMapI7QString8QVariantEvvvvvvvE18calculateMetaTypesEv@Base 0.1.0
 (optional=templinst)_ZN17QDBusPendingReplyI4QMapI7QString8QVariantEvvvvvvvE6assignERK16QDBusPendingCall@Base 0.1.0
 (optional=templinst)_ZN17QDBusPendingReplyI4QMapI7QString8QVariantEvvvvvvvEC1ERK16QDBusPendingCall@Base 0.1.0
 (optional=templinst)_ZN17QDBusPendingReplyI4QMapI7QString8QVariantEvvvvvvvEC2ERK16QDBusPendingCall@Base 0.1.0
 (optional=templinst)_ZN17QDBusPendingReplyI4QMapI7QString8QVariantEvvvvvvvED1Ev@Base 0.1.0
 (optional=templinst)_ZN17QDBusPendingReplyI4QMapI7QString8QVariantEvvvvvvvED2Ev@Base 0.1.0
 (optional=templinst)_ZN17QDBusPendingReplyI4QMapI7QString8QVariantEvvvvvvvEaSERK16QDBusPendingCall@Base 0.1.0
 (optional=templinst)_ZN17QDBusPendingReplyI4QMapI7QString8QVariantEvvvvvvvEaSERKS4_@Base 0.1.0
 (optional=templinst)_ZN17QDBusPendingReplyI7QStringvvvvvvvE18calculateMetaTypesEv@Base 0.1.0
 (optional=templinst)_ZN17QDBusPendingReplyI7QStringvvvvvvvE6assignERK16QDBusPendingCall@Base 0.1.0
 (optional=templinst)_ZN17QDBusPendingReplyI7QStringvvvvvvvEC1ERK16QDBusPendingCall@Base 0.1.0
 (optional=templinst)_ZN17QDBusPendingReplyI7QStringvvvvvvvEC2ERK16QDBusPendingCall@Base 0.1.0
 (optional=templinst)_ZN17QDBusPendingReplyI7QStringvvvvvvvED1Ev@Base 0.1.0
 (optional=templinst)_ZN17QDBusPendingReplyI7QStringvvvvvvvED2Ev@Base 0.1.0
 (optional=templinst)_ZN17QDBusPendingReplyI7QStringvvvvvvvEaSERK16QDBusPendingCall@Base 0.1.0
 (optional=templinst)_ZN17QDBusPendingReplyI7QStringvvvvvvvEaSERKS1_@Base 0.1.0
 (optional=templinst)_ZN17QDBusPendingReplyIbvvvvvvvE18calculateMetaTypesEv@Base 0.1.0
 (optional=templinst)_ZN17QDBusPendingReplyIbvvvvvvvE6assignERK16QDBusPendingCall@Base 0.1.0
 (optional=templinst)_ZN17QDBusPendingReplyIbvvvvvvvEC1ERK16QDBusPendingCall@Base 0.1.0
 (optional=templinst)_ZN17QDBusPendingReplyIbvvvvvvvEC2ERK16QDBusPendingCall@Base 0.1.0
 (optional=templinst)_ZN17QDBusPendingReplyIbvvvvvvvED1Ev@Base 0.1.0
 (optional=templinst)_ZN17QDBusPendingReplyIbvvvvvvvED2Ev@Base 0.1.0
 (optional=templinst)_ZN17QDBusPendingReplyIbvvvvvvvEaSERK16QDBusPendingCall@Base 0.1.0
 (optional=templinst)_ZN17QDBusPendingReplyIbvvvvvvvEaSERKS0_@Base 0.1.0
 (optional=templinst)_ZN17QDBusPendingReplyIivvvvvvvE18calculateMetaTypesEv@Base 0.1.0
 (optional=templinst)_ZN17QDBusPendingReplyIivvvvvvvE6assignERK16QDBusPendingCall@Base 0.1.0
 (optional=templinst)_ZN17QDBusPendingReplyIivvvvvvvEC1ERK16QDBusPendingCall@Base 0.1.0
 (optional=templinst)_ZN17QDBusPendingReplyIivvvvvvvEC1Ev@Base 0.1.0
 (optional=templinst)_ZN17QDBusPendingReplyIivvvvvvvEC2ERK16QDBusPendingCall@Base 0.1.0
 (optional=templinst)_ZN17QDBusPendingReplyIivvvvvvvEC2Ev@Base 0.1.0
 (optional=templinst)_ZN17QDBusPendingReplyIivvvvvvvED1Ev@Base 0.1.0
 (optional=templinst)_ZN17QDBusPendingReplyIivvvvvvvED2Ev@Base 0.1.0
 (optional=templinst)_ZN17QDBusPendingReplyIivvvvvvvEaSERK16QDBusPendingCall@Base 0.1.0
 (optional=templinst)_ZN17QDBusPendingReplyIivvvvvvvEaSERKS0_@Base 0.1.0
 (optional=templinst)_ZN17QDBusPendingReplyIvvvvvvvvE18calculateMetaTypesEv@Base 0.1.0
 (optional=templinst)_ZN17QDBusPendingReplyIvvvvvvvvE6assignERK16QDBusPendingCall@Base 0.1.0
 (optional=templinst)_ZN17QDBusPendingReplyIvvvvvvvvEC1ERK16QDBusPendingCall@Base 0.1.0
 (optional=templinst)_ZN17QDBusPendingReplyIvvvvvvvvEC2ERK16QDBusPendingCall@Base 0.1.0
 (optional=templinst)_ZN17QDBusPendingReplyIvvvvvvvvED1Ev@Base 0.1.0
 (optional=templinst)_ZN17QDBusPendingReplyIvvvvvvvvED2Ev@Base 0.1.0
 (optional=templinst)_ZN17QDBusPendingReplyIvvvvvvvvEaSERK16QDBusPendingCall@Base 0.1.0
 (optional=templinst)_ZN17QDBusPendingReplyIvvvvvvvvEaSERKS0_@Base 0.1.0
 (optional=templinst)_ZN21QScopedPointerDeleterI9QSettingsE7cleanupEPS0_@Base 0.3.0
 _ZN22OrgKdeKWalletInterface10folderListEiRK7QString@Base 0.1.0
 _ZN22OrgKdeKWalletInterface10writeEntryEiRK7QStringS2_RK10QByteArrayS2_@Base 0.1.0
 _ZN22OrgKdeKWalletInterface10writeEntryEiRK7QStringS2_RK10QByteArrayiS2_@Base 0.1.0
 _ZN22OrgKdeKWalletInterface11localWalletEv@Base 0.1.0
 _ZN22OrgKdeKWalletInterface11qt_metacallEN11QMetaObject4CallEiPPv@Base 0.1.0
 _ZN22OrgKdeKWalletInterface11qt_metacastEPKc@Base 0.1.0
 _ZN22OrgKdeKWalletInterface11readMapListEiRK7QStringS2_S2_@Base 0.1.0
 _ZN22OrgKdeKWalletInterface11reconfigureEv@Base 0.1.0
 _ZN22OrgKdeKWalletInterface11removeEntryEiRK7QStringS2_S2_@Base 0.1.0
 _ZN22OrgKdeKWalletInterface11renameEntryEiRK7QStringS2_S2_S2_@Base 0.1.0
 _ZN22OrgKdeKWalletInterface12createFolderEiRK7QStringS2_@Base 0.1.0
 _ZN22OrgKdeKWalletInterface12deleteWalletERK7QString@Base 0.1.0
 _ZN22OrgKdeKWalletInterface12readPasswordEiRK7QStringS2_S2_@Base 0.1.0
 _ZN22OrgKdeKWalletInterface12removeFolderEiRK7QStringS2_@Base 0.1.0
 _ZN22OrgKdeKWalletInterface12walletClosedERK7QString@Base 0.1.0
 _ZN22OrgKdeKWalletInterface12walletClosedEi@Base 0.1.0
 _ZN22OrgKdeKWalletInterface12walletOpenedERK7QString@Base 0.1.0
 _ZN22OrgKdeKWalletInterface13folderUpdatedERK7QStringS2_@Base 0.1.0
 _ZN22OrgKdeKWalletInterface13networkWalletEv@Base 0.1.0
 _ZN22OrgKdeKWalletInterface13openPathAsyncERK7QStringxS2_b@Base 0.1.0
 _ZN22OrgKdeKWalletInterface13readEntryListEiRK7QStringS2_S2_@Base 0.1.0
 _ZN22OrgKdeKWalletInterface13walletCreatedERK7QString@Base 0.1.0
 _ZN22OrgKdeKWalletInterface13walletDeletedERK7QString@Base 0.1.0
 _ZN22OrgKdeKWalletInterface13writePasswordEiRK7QStringS2_S2_S2_@Base 0.1.0
 _ZN22OrgKdeKWalletInterface14changePasswordERK7QStringxS2_@Base 0.1.0
 _ZN22OrgKdeKWalletInterface15closeAllWalletsEv@Base 0.1.0
 _ZN22OrgKdeKWalletInterface15keyDoesNotExistERK7QStringS2_S2_@Base 0.1.0
 _ZN22OrgKdeKWalletInterface15walletListDirtyEv@Base 0.1.0
 _ZN22OrgKdeKWalletInterface16allWalletsClosedEv@Base 0.1.0
 _ZN22OrgKdeKWalletInterface16readPasswordListEiRK7QStringS2_S2_@Base 0.1.0
 _ZN22OrgKdeKWalletInterface16staticMetaObjectE@Base 0.1.0
 _ZN22OrgKdeKWalletInterface17folderListUpdatedERK7QString@Base 0.1.0
 _ZN22OrgKdeKWalletInterface17walletAsyncOpenedEii@Base 0.1.0
 _ZN22OrgKdeKWalletInterface18folderDoesNotExistERK7QStringS2_@Base 0.1.0
 _ZN22OrgKdeKWalletInterface19staticInterfaceNameEv@Base 0.1.0
 _ZN22OrgKdeKWalletInterface21disconnectApplicationERK7QStringS2_@Base 0.1.0
 _ZN22OrgKdeKWalletInterface23applicationDisconnectedERK7QStringS2_@Base 0.1.0
 _ZN22OrgKdeKWalletInterface4openERK7QStringxS2_@Base 0.1.0
 _ZN22OrgKdeKWalletInterface4syncEiRK7QString@Base 0.1.0
 _ZN22OrgKdeKWalletInterface5closeERK7QStringb@Base 0.1.0
 _ZN22OrgKdeKWalletInterface5closeEibRK7QString@Base 0.1.0
 _ZN22OrgKdeKWalletInterface5usersERK7QString@Base 0.1.0
 _ZN22OrgKdeKWalletInterface6isOpenERK7QString@Base 0.1.0
 _ZN22OrgKdeKWalletInterface6isOpenEi@Base 0.1.0
 _ZN22OrgKdeKWalletInterface7pamOpenERK7QStringRK10QByteArrayi@Base 0.1.0
 _ZN22OrgKdeKWalletInterface7readMapEiRK7QStringS2_S2_@Base 0.1.0
 _ZN22OrgKdeKWalletInterface7walletsEv@Base 0.1.0
 _ZN22OrgKdeKWalletInterface8hasEntryEiRK7QStringS2_S2_@Base 0.1.0
 _ZN22OrgKdeKWalletInterface8openPathERK7QStringxS2_@Base 0.1.0
 _ZN22OrgKdeKWalletInterface8writeMapEiRK7QStringS2_RK10QByteArrayS2_@Base 0.1.0
 _ZN22OrgKdeKWalletInterface9entryListEiRK7QStringS2_@Base 0.1.0
 _ZN22OrgKdeKWalletInterface9entryTypeEiRK7QStringS2_S2_@Base 0.1.0
 _ZN22OrgKdeKWalletInterface9hasFolderEiRK7QStringS2_@Base 0.1.0
 _ZN22OrgKdeKWalletInterface9isEnabledEv@Base 0.1.0
 _ZN22OrgKdeKWalletInterface9openAsyncERK7QStringxS2_b@Base 0.1.0
 _ZN22OrgKdeKWalletInterface9readEntryEiRK7QStringS2_S2_@Base 0.1.0
 _ZN22OrgKdeKWalletInterfaceC1ERK7QStringS2_RK15QDBusConnectionP7QObject@Base 0.1.0
 _ZN22OrgKdeKWalletInterfaceC2ERK7QStringS2_RK15QDBusConnectionP7QObject@Base 0.1.0
 _ZN22OrgKdeKWalletInterfaceD0Ev@Base 0.1.0
 _ZN22OrgKdeKWalletInterfaceD1Ev@Base 0.1.0
 _ZN22OrgKdeKWalletInterfaceD2Ev@Base 0.1.0
 (optional=templinst)_ZN22QDBusPendingReplyTypes11metaTypeForI10QByteArrayEEiPT_@Base 0.1.0
 (optional=templinst)_ZN22QDBusPendingReplyTypes11metaTypeForI11QStringListEEiPT_@Base 0.1.0
 (optional=templinst)_ZN22QDBusPendingReplyTypes11metaTypeForI4QMapI7QString8QVariantEEEiPT_@Base 0.1.0
 (optional=templinst)_ZN22QDBusPendingReplyTypes11metaTypeForI7QStringEEiPT_@Base 0.1.0
 (optional=templinst)_ZN22QDBusPendingReplyTypes11metaTypeForIbEEiPT_@Base 0.1.0
 (optional=templinst)_ZN22QDBusPendingReplyTypes11metaTypeForIiEEiPT_@Base 0.1.0
 (optional=templinst)_ZN22QDBusPendingReplyTypes7ForEachI10QByteArrayvvvvvvvE13fillMetaTypesEPi@Base 0.1.0
 (optional=templinst)_ZN22QDBusPendingReplyTypes7ForEachI11QStringListvvvvvvvE13fillMetaTypesEPi@Base 0.1.0
 (optional=templinst)_ZN22QDBusPendingReplyTypes7ForEachI4QMapI7QString8QVariantEvvvvvvvE13fillMetaTypesEPi@Base 0.1.0
 (optional=templinst)_ZN22QDBusPendingReplyTypes7ForEachI7QStringvvvvvvvE13fillMetaTypesEPi@Base 0.1.0
 (optional=templinst)_ZN22QDBusPendingReplyTypes7ForEachIbvvvvvvvE13fillMetaTypesEPi@Base 0.1.0
 (optional=templinst)_ZN22QDBusPendingReplyTypes7ForEachIivvvvvvvE13fillMetaTypesEPi@Base 0.1.0
 (optional=templinst)_ZN22QDBusPendingReplyTypes7ForEachIvvvvvvvvE13fillMetaTypesEPi@Base 0.1.0
 _ZN22QGenericReturnArgumentC1EPKcPv@Base 0.1.0
 _ZN22QGenericReturnArgumentC2EPKcPv@Base 0.1.0
 _ZN5QCharC1E11QLatin1Char@Base 0.1.0
 _ZN5QCharC2E11QLatin1Char@Base 0.1.0
 (optional=templinst)_ZN5QListI8QVariantE13node_destructEPNS1_4NodeES3_@Base 0.1.0
 (optional=templinst)_ZN5QListI8QVariantE14node_constructEPNS1_4NodeERKS0_@Base 0.1.0
 (optional=templinst)_ZN5QListI8QVariantE18detach_helper_growEii@Base 0.1.0
 (optional=templinst)_ZN5QListI8QVariantE4freeEPN9QListData4DataE@Base 0.1.0
 (optional=templinst)_ZN5QListI8QVariantE6appendERKS0_@Base 0.1.0
 (optional=templinst)_ZN5QListI8QVariantE9node_copyEPNS1_4NodeES3_S3_@Base 0.1.0
 (optional=templinst)_ZN5QListI8QVariantEC1Ev@Base 0.1.0
 (optional=templinst)_ZN5QListI8QVariantEC2Ev@Base 0.1.0
 (optional=templinst)_ZN5QListI8QVariantED1Ev@Base 0.1.0
 (optional=templinst)_ZN5QListI8QVariantED2Ev@Base 0.1.0
 (optional=templinst)_ZN5QListI8QVariantElsERKS0_@Base 0.1.0
 (optional=templinst)_ZN5QPairIN9QKeychain5ErrorE7QStringEC1ERKS1_RKS2_@Base 0.3.0
 (optional=templinst)_ZN5QPairIN9QKeychain5ErrorE7QStringEC2ERKS1_RKS2_@Base 0.3.0
 (optional=templinst)_ZN5QPairIN9QKeychain5ErrorE7QStringED1Ev@Base 0.3.0
 (optional=templinst)_ZN5QPairIN9QKeychain5ErrorE7QStringED2Ev@Base 0.3.0
 _ZN7QObject10disconnectEPKS_PKc@Base 0.1.0
 _ZN7QObject2trEPKcS1_@Base 0.3.0
 _ZN7QStringC1EPKc@Base 0.1.0
 _ZN7QStringC1ERK13QLatin1String@Base 0.1.0
 _ZN7QStringC1ERKS_@Base 0.1.0
 _ZN7QStringC1Ev@Base 0.1.0
 _ZN7QStringC2EPKc@Base 0.1.0
 _ZN7QStringC2ERK13QLatin1String@Base 0.1.0
 _ZN7QStringC2ERKS_@Base 0.1.0
 _ZN7QStringC2Ev@Base 0.1.0
 _ZN7QStringD1Ev@Base 0.1.0
 _ZN7QStringD2Ev@Base 0.1.0
 (optional=templinst)_ZN7QVectorI8QPointerIN9QKeychain3JobEEE13detach_helperEv@Base 0.1.0
 (optional=templinst)_ZN7QVectorI8QPointerIN9QKeychain3JobEEE15sizeOfTypedDataEv@Base 0.1.0
 (optional=templinst)_ZN7QVectorI8QPointerIN9QKeychain3JobEEE4freeEP16QVectorTypedDataIS3_E@Base 0.1.0
 (optional=templinst)_ZN7QVectorI8QPointerIN9QKeychain3JobEEE5beginEv@Base 0.1.0
 (optional=templinst)_ZN7QVectorI8QPointerIN9QKeychain3JobEEE5eraseEPS3_@Base 0.1.0
 (optional=templinst)_ZN7QVectorI8QPointerIN9QKeychain3JobEEE5eraseEPS3_S5_@Base 0.1.0
 (optional=templinst)_ZN7QVectorI8QPointerIN9QKeychain3JobEEE5firstEv@Base 0.1.0
 (optional=templinst)_ZN7QVectorI8QPointerIN9QKeychain3JobEEE6appendERKS3_@Base 0.1.0
 (optional=templinst)_ZN7QVectorI8QPointerIN9QKeychain3JobEEE6detachEv@Base 0.1.0
 (optional=templinst)_ZN7QVectorI8QPointerIN9QKeychain3JobEEE6mallocEi@Base 0.1.0
 (optional=templinst)_ZN7QVectorI8QPointerIN9QKeychain3JobEEE7reallocEii@Base 0.1.0
 (optional=templinst)_ZN7QVectorI8QPointerIN9QKeychain3JobEEE9pop_frontEv@Base 0.1.0
 (optional=templinst)_ZN7QVectorI8QPointerIN9QKeychain3JobEEEC1Ev@Base 0.1.0
 (optional=templinst)_ZN7QVectorI8QPointerIN9QKeychain3JobEEEC2Ev@Base 0.1.0
 (optional=templinst)_ZN7QVectorI8QPointerIN9QKeychain3JobEEED1Ev@Base 0.1.0
 (optional=templinst)_ZN7QVectorI8QPointerIN9QKeychain3JobEEED2Ev@Base 0.1.0
 (optional=templinst)_ZN8QPointerI9QSettingsEC1Ev@Base 0.1.0
 (optional=templinst)_ZN8QPointerI9QSettingsEC2Ev@Base 0.1.0
 (optional=templinst)_ZN8QPointerI9QSettingsED1Ev@Base 0.1.0
 (optional=templinst)_ZN8QPointerI9QSettingsED2Ev@Base 0.1.0
 (optional=templinst)_ZN8QPointerI9QSettingsEaSEPS0_@Base 0.1.0
 (optional=templinst)_ZN8QPointerIN9QKeychain3JobEEC1EPS1_@Base 0.1.0
 (optional=templinst)_ZN8QPointerIN9QKeychain3JobEEC1ERKS2_@Base 0.1.0
 (optional=templinst)_ZN8QPointerIN9QKeychain3JobEEC1Ev@Base 0.1.0
 (optional=templinst)_ZN8QPointerIN9QKeychain3JobEEC2EPS1_@Base 0.1.0
 (optional=templinst)_ZN8QPointerIN9QKeychain3JobEEC2ERKS2_@Base 0.1.0
 (optional=templinst)_ZN8QPointerIN9QKeychain3JobEEC2Ev@Base 0.1.0
 (optional=templinst)_ZN8QPointerIN9QKeychain3JobEED1Ev@Base 0.1.0
 (optional=templinst)_ZN8QPointerIN9QKeychain3JobEED2Ev@Base 0.1.0
 (optional=templinst)_ZN8QPointerIN9QKeychain3JobEEaSERKS2_@Base 0.1.0
 _ZN8QVariant7PrivateC1Ev@Base 0.1.0
 _ZN8QVariant7PrivateC2Ev@Base 0.1.0
 (optional=templinst)_ZN8QVariant9fromValueI10QByteArrayEES_RKT_@Base 0.1.0
 (optional=templinst)_ZN8QVariant9fromValueI7QStringEES_RKT_@Base 0.1.0
 (optional=templinst)_ZN8QVariant9fromValueIbEES_RKT_@Base 0.1.0
 (optional=templinst)_ZN8QVariant9fromValueIiEES_RKT_@Base 0.1.0
 (optional=templinst)_ZN8QVariant9fromValueIxEES_RKT_@Base 0.1.0
 _ZN8QVariantC1Ev@Base 0.1.0
 _ZN8QVariantC2Ev@Base 0.1.0
 _ZN9QKeychain10JobPrivate11qt_metacallEN11QMetaObject4CallEiPPv@Base 0.1.0
 _ZN9QKeychain10JobPrivate11qt_metacastEPKc@Base 0.1.0
 _ZN9QKeychain10JobPrivate16staticMetaObjectE@Base 0.1.0
 _ZN9QKeychain10JobPrivateC1ERK7QString@Base 0.1.0
 _ZN9QKeychain10JobPrivateC2ERK7QString@Base 0.1.0
 _ZN9QKeychain10JobPrivateD0Ev@Base 0.1.0
 _ZN9QKeychain10JobPrivateD1Ev@Base 0.1.0
 _ZN9QKeychain10JobPrivateD2Ev@Base 0.1.0
 _ZN9QKeychain11JobExecutor10s_instanceE@Base 0.1.0
 _ZN9QKeychain11JobExecutor11jobFinishedEPNS_3JobE@Base 0.1.0
 _ZN9QKeychain11JobExecutor11qt_metacallEN11QMetaObject4CallEiPPv@Base 0.1.0
 _ZN9QKeychain11JobExecutor11qt_metacastEPKc@Base 0.1.0
 _ZN9QKeychain11JobExecutor12jobDestroyedEP7QObject@Base 0.1.0
 _ZN9QKeychain11JobExecutor16staticMetaObjectE@Base 0.1.0
 _ZN9QKeychain11JobExecutor22startNextIfNoneRunningEv@Base 0.1.0
 _ZN9QKeychain11JobExecutor7enqueueEPNS_3JobE@Base 0.1.0
 _ZN9QKeychain11JobExecutor8instanceEv@Base 0.1.0
 _ZN9QKeychain11JobExecutorC1Ev@Base 0.1.0
 _ZN9QKeychain11JobExecutorC2Ev@Base 0.1.0
 _ZN9QKeychain11JobExecutorD0Ev@Base 0.1.0
 _ZN9QKeychain11JobExecutorD1Ev@Base 0.1.0
 _ZN9QKeychain11JobExecutorD2Ev@Base 0.1.0
 _ZN9QKeychain15ReadPasswordJob11qt_metacallEN11QMetaObject4CallEiPPv@Base 0.1.0
 _ZN9QKeychain15ReadPasswordJob11qt_metacastEPKc@Base 0.1.0
 _ZN9QKeychain15ReadPasswordJob16staticMetaObjectE@Base 0.1.0
 _ZN9QKeychain15ReadPasswordJob6setKeyERK7QString@Base 0.1.0
 _ZN9QKeychain15ReadPasswordJob7doStartEv@Base 0.1.0
 _ZN9QKeychain15ReadPasswordJobC1ERK7QStringP7QObject@Base 0.1.0
 _ZN9QKeychain15ReadPasswordJobC2ERK7QStringP7QObject@Base 0.1.0
 _ZN9QKeychain15ReadPasswordJobD0Ev@Base 0.1.0
 _ZN9QKeychain15ReadPasswordJobD1Ev@Base 0.1.0
 _ZN9QKeychain15ReadPasswordJobD2Ev@Base 0.1.0
 _ZN9QKeychain16WritePasswordJob11qt_metacallEN11QMetaObject4CallEiPPv@Base 0.1.0
 _ZN9QKeychain16WritePasswordJob11qt_metacastEPKc@Base 0.1.0
 _ZN9QKeychain16WritePasswordJob11setTextDataERK7QString@Base 0.1.0
 _ZN9QKeychain16WritePasswordJob13setBinaryDataERK10QByteArray@Base 0.1.0
 _ZN9QKeychain16WritePasswordJob16staticMetaObjectE@Base 0.1.0
 _ZN9QKeychain16WritePasswordJob6setKeyERK7QString@Base 0.1.0
 _ZN9QKeychain16WritePasswordJob7doStartEv@Base 0.1.0
 _ZN9QKeychain16WritePasswordJobC1ERK7QStringP7QObject@Base 0.1.0
 _ZN9QKeychain16WritePasswordJobC2ERK7QStringP7QObject@Base 0.1.0
 _ZN9QKeychain16WritePasswordJobD0Ev@Base 0.1.0
 _ZN9QKeychain16WritePasswordJobD1Ev@Base 0.1.0
 _ZN9QKeychain16WritePasswordJobD2Ev@Base 0.1.0
 _ZN9QKeychain17DeletePasswordJob11qt_metacallEN11QMetaObject4CallEiPPv@Base 0.1.0
 _ZN9QKeychain17DeletePasswordJob11qt_metacastEPKc@Base 0.1.0
 _ZN9QKeychain17DeletePasswordJob16staticMetaObjectE@Base 0.1.0
 _ZN9QKeychain17DeletePasswordJob6setKeyERK7QString@Base 0.1.0
 _ZN9QKeychain17DeletePasswordJob7doStartEv@Base 0.1.0
 _ZN9QKeychain17DeletePasswordJobC1ERK7QStringP7QObject@Base 0.1.0
 _ZN9QKeychain17DeletePasswordJobC2ERK7QStringP7QObject@Base 0.1.0
 _ZN9QKeychain17DeletePasswordJobD0Ev@Base 0.1.0
 _ZN9QKeychain17DeletePasswordJobD1Ev@Base 0.1.0
 _ZN9QKeychain17DeletePasswordJobD2Ev@Base 0.1.0
 _ZN9QKeychain22ReadPasswordJobPrivate11qt_metacallEN11QMetaObject4CallEiPPv@Base 0.1.0
 _ZN9QKeychain22ReadPasswordJobPrivate11qt_metacastEPKc@Base 0.1.0
 _ZN9QKeychain22ReadPasswordJobPrivate14scheduledStartEv@Base 0.1.0
 _ZN9QKeychain22ReadPasswordJobPrivate15fallbackOnErrorERK10QDBusError@Base 0.3.0
 _ZN9QKeychain22ReadPasswordJobPrivate15gnomeKeyring_cbEiPKcPS0_@Base 0.3.0
 _ZN9QKeychain22ReadPasswordJobPrivate16staticMetaObjectE@Base 0.1.0
 _ZN9QKeychain22ReadPasswordJobPrivate18kwalletWalletFoundEP23QDBusPendingCallWatcher@Base 0.3.0
 _ZN9QKeychain22ReadPasswordJobPrivate19kwalletOpenFinishedEP23QDBusPendingCallWatcher@Base 0.1.0
 _ZN9QKeychain22ReadPasswordJobPrivate19kwalletReadFinishedEP23QDBusPendingCallWatcher@Base 0.1.0
 _ZN9QKeychain22ReadPasswordJobPrivate24kwalletEntryTypeFinishedEP23QDBusPendingCallWatcher@Base 0.1.0
 _ZN9QKeychain22ReadPasswordJobPrivate2trEPKcS2_@Base 0.1.0
 _ZN9QKeychain22ReadPasswordJobPrivateC1EPNS_15ReadPasswordJobE@Base 0.1.0
 _ZN9QKeychain22ReadPasswordJobPrivateC2EPNS_15ReadPasswordJobE@Base 0.1.0
 _ZN9QKeychain22ReadPasswordJobPrivateD0Ev@Base 0.1.0
 _ZN9QKeychain22ReadPasswordJobPrivateD1Ev@Base 0.1.0
 _ZN9QKeychain22ReadPasswordJobPrivateD2Ev@Base 0.1.0
 _ZN9QKeychain23WritePasswordJobPrivate11qt_metacallEN11QMetaObject4CallEiPPv@Base 0.1.0
 _ZN9QKeychain23WritePasswordJobPrivate11qt_metacastEPKc@Base 0.1.0
 _ZN9QKeychain23WritePasswordJobPrivate12modeToStringENS0_4ModeE@Base 0.3.0
 _ZN9QKeychain23WritePasswordJobPrivate12stringToModeERK7QString@Base 0.3.0
 _ZN9QKeychain23WritePasswordJobPrivate14scheduledStartEv@Base 0.1.0
 _ZN9QKeychain23WritePasswordJobPrivate15fallbackOnErrorERK10QDBusError@Base 0.3.0
 _ZN9QKeychain23WritePasswordJobPrivate15gnomeKeyring_cbEiPS0_@Base 0.3.0
 _ZN9QKeychain23WritePasswordJobPrivate16staticMetaObjectE@Base 0.1.0
 _ZN9QKeychain23WritePasswordJobPrivate19kwalletOpenFinishedEP23QDBusPendingCallWatcher@Base 0.1.0
 _ZN9QKeychain23WritePasswordJobPrivate20kwalletWriteFinishedEP23QDBusPendingCallWatcher@Base 0.1.0
 _ZN9QKeychain23WritePasswordJobPrivate2trEPKcS2_@Base 0.1.0
 _ZN9QKeychain23WritePasswordJobPrivateC1EPNS_16WritePasswordJobE@Base 0.1.0
 _ZN9QKeychain23WritePasswordJobPrivateC2EPNS_16WritePasswordJobE@Base 0.1.0
 _ZN9QKeychain23WritePasswordJobPrivateD0Ev@Base 0.1.0
 _ZN9QKeychain23WritePasswordJobPrivateD1Ev@Base 0.1.0
 _ZN9QKeychain23WritePasswordJobPrivateD2Ev@Base 0.1.0
 _ZN9QKeychain24DeletePasswordJobPrivate11jobFinishedEPNS_3JobE@Base 0.1.0
 _ZN9QKeychain24DeletePasswordJobPrivate11qt_metacallEN11QMetaObject4CallEiPPv@Base 0.1.0
 _ZN9QKeychain24DeletePasswordJobPrivate11qt_metacastEPKc@Base 0.1.0
 _ZN9QKeychain24DeletePasswordJobPrivate16staticMetaObjectE@Base 0.1.0
 _ZN9QKeychain24DeletePasswordJobPrivateC1EPNS_17DeletePasswordJobE@Base 0.1.0
 _ZN9QKeychain24DeletePasswordJobPrivateC2EPNS_17DeletePasswordJobE@Base 0.1.0
 _ZN9QKeychain24DeletePasswordJobPrivateD0Ev@Base 0.1.0
 _ZN9QKeychain24DeletePasswordJobPrivateD1Ev@Base 0.1.0
 _ZN9QKeychain24DeletePasswordJobPrivateD2Ev@Base 0.1.0
 _ZN9QKeychain3Job11qt_metacallEN11QMetaObject4CallEiPPv@Base 0.1.0
 _ZN9QKeychain3Job11qt_metacastEPKc@Base 0.1.0
 _ZN9QKeychain3Job11setSettingsEP9QSettings@Base 0.1.0
 _ZN9QKeychain3Job12emitFinishedEv@Base 0.1.0
 _ZN9QKeychain3Job13setAutoDeleteEb@Base 0.1.0
 _ZN9QKeychain3Job14setErrorStringERK7QString@Base 0.1.0
 _ZN9QKeychain3Job16staticMetaObjectE@Base 0.1.0
 _ZN9QKeychain3Job19setInsecureFallbackEb@Base 0.1.0
 _ZN9QKeychain3Job21emitFinishedWithErrorENS_5ErrorERK7QString@Base 0.1.0
 _ZN9QKeychain3Job5startEv@Base 0.1.0
 _ZN9QKeychain3Job8finishedEPS0_@Base 0.1.0
 _ZN9QKeychain3Job8setErrorENS_5ErrorE@Base 0.1.0
 _ZN9QKeychain3JobC1ERK7QStringP7QObject@Base 0.1.0
 _ZN9QKeychain3JobC2ERK7QStringP7QObject@Base 0.1.0
 _ZN9QKeychain3JobD0Ev@Base 0.1.0
 _ZN9QKeychain3JobD1Ev@Base 0.1.0
 _ZN9QKeychain3JobD2Ev@Base 0.1.0
 (optional=templinst)_ZN9QtPrivate17QMetaTypeIdHelperI13QDBusArgumentLb1EE14qt_metatype_idEv@Base 0.1.0
 _ZNK10QByteArray7isEmptyEv@Base 0.1.0
 _ZNK10QByteArray9constDataEv@Base 0.3.0
 _ZNK10QByteArraycvPKcEv@Base 0.1.0
 _ZNK11QLatin1Char7unicodeEv@Base 0.1.0
 _ZNK13QLatin1String6latin1Ev@Base 0.1.0
 (optional=templinst)_ZNK14QScopedPointerI11QObjectData21QScopedPointerDeleterIS0_EEptEv@Base 0.1.0
 (optional=templinst)_ZNK14QScopedPointerI9QSettings21QScopedPointerDeleterIS0_EE4dataEv@Base 0.3.0
 _ZNK15QBasicAtomicIntcviEv@Base 0.1.0
 _ZNK15QBasicAtomicInteqEi@Base 0.1.0
 _ZNK15QBasicAtomicIntneEi@Base 0.1.0
 _ZNK15QBasicAtomicIntntEv@Base 0.1.0
 (optional=templinst)_ZNK17QDBusPendingReplyI10QByteArrayvvvvvvvE10argumentAtILi0EEEKNS1_6SelectIXT_EE4TypeEv@Base 0.1.0
 (optional=templinst)_ZNK17QDBusPendingReplyI10QByteArrayvvvvvvvE5countEv@Base 0.1.0
 (optional=templinst)_ZNK17QDBusPendingReplyI10QByteArrayvvvvvvvE5valueEv@Base 0.1.0
 (optional=templinst)_ZNK17QDBusPendingReplyI7QStringvvvvvvvE10argumentAtILi0EEEKNS1_6SelectIXT_EE4TypeEv@Base 0.1.0
 (optional=templinst)_ZNK17QDBusPendingReplyI7QStringvvvvvvvE5countEv@Base 0.1.0
 (optional=templinst)_ZNK17QDBusPendingReplyI7QStringvvvvvvvE5valueEv@Base 0.1.0
 (optional=templinst)_ZNK17QDBusPendingReplyIivvvvvvvE10argumentAtILi0EEEKNS0_6SelectIXT_EE4TypeEv@Base 0.1.0
 (optional=templinst)_ZNK17QDBusPendingReplyIivvvvvvvE5countEv@Base 0.1.0
 (optional=templinst)_ZNK17QDBusPendingReplyIivvvvvvvE5valueEv@Base 0.1.0
 _ZNK22OrgKdeKWalletInterface10metaObjectEv@Base 0.1.0
 (optional=templinst)_ZNK28QExplicitlySharedDataPointerI23QDBusPendingCallPrivateEntEv@Base 0.1.0
 _ZNK7QString3argERKS_S1_@Base 0.1.0
 _ZNK7QString3argEiiiRK5QChar@Base 0.3.0
 _ZNK7QString7isEmptyEv@Base 0.1.0
 (optional=templinst)_ZNK7QVectorI8QPointerIN9QKeychain3JobEEE16alignOfTypedDataEv@Base 0.1.0
 (optional=templinst)_ZNK7QVectorI8QPointerIN9QKeychain3JobEEE7isEmptyEv@Base 0.1.0
 _ZNK8QPointerI9QSettingsEcvPS0_Ev@Base 0.1.0
 _ZNK8QPointerIN9QKeychain3JobEEcvPS1_Ev@Base 0.1.0
 _ZNK9QKeychain10JobPrivate10metaObjectEv@Base 0.1.0
 _ZNK9QKeychain11JobExecutor10metaObjectEv@Base 0.1.0
 _ZNK9QKeychain15ReadPasswordJob10binaryDataEv@Base 0.1.0
 _ZNK9QKeychain15ReadPasswordJob10metaObjectEv@Base 0.1.0
 (optional=templinst)_ZNK9QKeychain15ReadPasswordJob26qt_check_for_QOBJECT_macroIS0_EEvRKT_@Base 0.1.0
 _ZNK9QKeychain15ReadPasswordJob3keyEv@Base 0.1.0
 _ZNK9QKeychain15ReadPasswordJob8textDataEv@Base 0.1.0
 _ZNK9QKeychain16WritePasswordJob10metaObjectEv@Base 0.1.0
 (optional=templinst)_ZNK9QKeychain16WritePasswordJob26qt_check_for_QOBJECT_macroIS0_EEvRKT_@Base 0.1.0
 _ZNK9QKeychain16WritePasswordJob3keyEv@Base 0.1.0
 _ZNK9QKeychain17DeletePasswordJob10metaObjectEv@Base 0.1.0
 _ZNK9QKeychain17DeletePasswordJob3keyEv@Base 0.1.0
 _ZNK9QKeychain22ReadPasswordJobPrivate10metaObjectEv@Base 0.1.0
 _ZNK9QKeychain23WritePasswordJobPrivate10metaObjectEv@Base 0.1.0
 _ZNK9QKeychain24DeletePasswordJobPrivate10metaObjectEv@Base 0.1.0
 _ZNK9QKeychain3Job10autoDeleteEv@Base 0.1.0
 _ZNK9QKeychain3Job10metaObjectEv@Base 0.1.0
 _ZNK9QKeychain3Job11errorStringEv@Base 0.1.0
 _ZNK9QKeychain3Job16insecureFallbackEv@Base 0.1.0
 _ZNK9QKeychain3Job5errorEv@Base 0.1.0
 _ZNK9QKeychain3Job7serviceEv@Base 0.1.0
 _ZNK9QKeychain3Job8settingsEv@Base 0.1.0
 _ZNK9QListData3endEv@Base 0.1.0
 _ZNK9QListData5beginEv@Base 0.1.0
 _ZTI12GnomeKeyring@Base 0.3.0
 _ZTI22OrgKdeKWalletInterface@Base 0.1.0
 _ZTIN9QKeychain10JobPrivateE@Base 0.1.0
 _ZTIN9QKeychain11JobExecutorE@Base 0.1.0
 _ZTIN9QKeychain15ReadPasswordJobE@Base 0.1.0
 _ZTIN9QKeychain16WritePasswordJobE@Base 0.1.0
 _ZTIN9QKeychain17DeletePasswordJobE@Base 0.1.0
 _ZTIN9QKeychain22ReadPasswordJobPrivateE@Base 0.1.0
 _ZTIN9QKeychain23WritePasswordJobPrivateE@Base 0.1.0
 _ZTIN9QKeychain24DeletePasswordJobPrivateE@Base 0.1.0
 _ZTIN9QKeychain3JobE@Base 0.1.0
 _ZTS12GnomeKeyring@Base 0.3.0
 _ZTS22OrgKdeKWalletInterface@Base 0.1.0
 _ZTSN9QKeychain10JobPrivateE@Base 0.1.0
 _ZTSN9QKeychain11JobExecutorE@Base 0.1.0
 _ZTSN9QKeychain15ReadPasswordJobE@Base 0.1.0
 _ZTSN9QKeychain16WritePasswordJobE@Base 0.1.0
 _ZTSN9QKeychain17DeletePasswordJobE@Base 0.1.0
 _ZTSN9QKeychain22ReadPasswordJobPrivateE@Base 0.1.0
 _ZTSN9QKeychain23WritePasswordJobPrivateE@Base 0.1.0
 _ZTSN9QKeychain24DeletePasswordJobPrivateE@Base 0.1.0
 _ZTSN9QKeychain3JobE@Base 0.1.0
 _ZTV12GnomeKeyring@Base 0.3.0
 _ZTV22OrgKdeKWalletInterface@Base 0.1.0
 _ZTVN9QKeychain10JobPrivateE@Base 0.1.0
 _ZTVN9QKeychain11JobExecutorE@Base 0.1.0
 _ZTVN9QKeychain15ReadPasswordJobE@Base 0.1.0
 _ZTVN9QKeychain16WritePasswordJobE@Base 0.1.0
 _ZTVN9QKeychain17DeletePasswordJobE@Base 0.1.0
 _ZTVN9QKeychain22ReadPasswordJobPrivateE@Base 0.1.0
 _ZTVN9QKeychain23WritePasswordJobPrivateE@Base 0.1.0
 _ZTVN9QKeychain24DeletePasswordJobPrivateE@Base 0.1.0
 _ZTVN9QKeychain3JobE@Base 0.1.0
 (optional=templinst)_ZZN11QMetaTypeIdI13QDBusArgumentE14qt_metatype_idEvE11metatype_id@Base 0.1.0
 _ZdlPvS_@Base 0.1.0
 (subst)_Znw{size_t}Pv@Base 0.1.0
